target datalayout = "e-m:e-p270:32:32-p271:32:32-p272:64:64-i64:64-i128:128-f80:128-n8:16:32:64-S128"
target triple = "x86_64-unknown-linux-gnu"

%union.UElement = type { ptr }
%"struct.icu_75::PartialLocationKey" = type { ptr, ptr, i8 }

; Function Attrs: mustprogress nounwind uwtable
define internal noundef signext i8 @_ZN6icu_75L25comparePartialLocationKeyE8UElementS0_(ptr %key1.coerce, ptr %key2.coerce) #0 {
entry:
  %retval = alloca i8, align 1
  %key1 = alloca %union.UElement, align 8
  %key2 = alloca %union.UElement, align 8
  %p1 = alloca ptr, align 8
  %p2 = alloca ptr, align 8
  %coerce.dive = getelementptr inbounds %union.UElement, ptr %key1, i32 0, i32 0
  store ptr %key1.coerce, ptr %coerce.dive, align 8
  %coerce.dive1 = getelementptr inbounds %union.UElement, ptr %key2, i32 0, i32 0
  store ptr %key2.coerce, ptr %coerce.dive1, align 8
  %0 = load ptr, ptr %key1, align 8
  store ptr %0, ptr %p1, align 8
  %1 = load ptr, ptr %key2, align 8
  store ptr %1, ptr %p2, align 8
  %2 = load ptr, ptr %p1, align 8
  %3 = load ptr, ptr %p2, align 8
  %cmp = icmp eq ptr %2, %3
  br i1 %cmp, label %if.then, label %if.end

if.then:                                          ; preds = %entry
  store i8 1, ptr %retval, align 1
  br label %return

if.end:                                           ; preds = %entry
  %4 = load ptr, ptr %p1, align 8
  %cmp2 = icmp eq ptr %4, null
  br i1 %cmp2, label %if.then4, label %lor.lhs.false

lor.lhs.false:                                    ; preds = %if.end
  %5 = load ptr, ptr %p2, align 8
  %cmp3 = icmp eq ptr %5, null
  br i1 %cmp3, label %if.then4, label %if.end5

if.then4:                                         ; preds = %lor.lhs.false, %if.end
  store i8 0, ptr %retval, align 1
  br label %return

if.end5:                                          ; preds = %lor.lhs.false
  %6 = load ptr, ptr %p1, align 8
  %tzID = getelementptr inbounds %"struct.icu_75::PartialLocationKey", ptr %6, i32 0, i32 0
  %7 = load ptr, ptr %tzID, align 8
  %8 = load ptr, ptr %p2, align 8
  %tzID6 = getelementptr inbounds %"struct.icu_75::PartialLocationKey", ptr %8, i32 0, i32 0
  %9 = load ptr, ptr %tzID6, align 8
  %cmp7 = icmp eq ptr %7, %9
  br i1 %cmp7, label %land.lhs.true, label %land.end

land.lhs.true:                                    ; preds = %if.end5
  %10 = load ptr, ptr %p1, align 8
  %mzID = getelementptr inbounds %"struct.icu_75::PartialLocationKey", ptr %10, i32 0, i32 1
  %11 = load ptr, ptr %mzID, align 8
  %12 = load ptr, ptr %p2, align 8
  %mzID8 = getelementptr inbounds %"struct.icu_75::PartialLocationKey", ptr %12, i32 0, i32 1
  %13 = load ptr, ptr %mzID8, align 8
  %cmp9 = icmp eq ptr %11, %13
  br i1 %cmp9, label %land.rhs, label %land.end

land.rhs:                                         ; preds = %land.lhs.true
  %14 = load ptr, ptr %p1, align 8
  %isLong = getelementptr inbounds %"struct.icu_75::PartialLocationKey", ptr %14, i32 0, i32 2
  %15 = load i8, ptr %isLong, align 8
  %conv = sext i8 %15 to i32
  %16 = load ptr, ptr %p2, align 8
  %isLong10 = getelementptr inbounds %"struct.icu_75::PartialLocationKey", ptr %16, i32 0, i32 2
  %17 = load i8, ptr %isLong10, align 8
  %conv11 = sext i8 %17 to i32
  %cmp12 = icmp eq i32 %conv, %conv11
  br label %land.end

land.end:                                         ; preds = %land.rhs, %land.lhs.true, %if.end5
  %18 = phi i1 [ false, %land.lhs.true ], [ false, %if.end5 ], [ %cmp12, %land.rhs ]
  %conv13 = zext i1 %18 to i8
  store i8 %conv13, ptr %retval, align 1
  br label %return

return:                                           ; preds = %land.end, %if.then4, %if.then
  %19 = load i8, ptr %retval, align 1
  ret i8 %19
}