; Function Attrs: mustprogress nofree norecurse nosync nounwind willreturn memory(argmem: read) uwtable
define internal noundef signext i8 @_ZN6icu_75L25comparePartialLocationKeyE8UElementS0_(ptr readonly %key1.coerce, ptr readonly %key2.coerce) #10 {
entry:
  %cmp = icmp eq ptr %key1.coerce, %key2.coerce
  br i1 %cmp, label %return, label %if.end

if.end:                                           ; preds = %entry
  %cmp2 = icmp eq ptr %key1.coerce, null
  %cmp3 = icmp eq ptr %key2.coerce, null
  %or.cond = or i1 %cmp2, %cmp3
  br i1 %or.cond, label %return, label %if.end5

if.end5:                                          ; preds = %if.end
  %0 = load ptr, ptr %key1.coerce, align 8
  %1 = load ptr, ptr %key2.coerce, align 8
  %cmp7 = icmp eq ptr %0, %1
  br i1 %cmp7, label %land.lhs.true, label %return

land.lhs.true:                                    ; preds = %if.end5
  %mzID = getelementptr inbounds i8, ptr %key1.coerce, i64 8
  %2 = load ptr, ptr %mzID, align 8
  %mzID8 = getelementptr inbounds i8, ptr %key2.coerce, i64 8
  %3 = load ptr, ptr %mzID8, align 8
  %cmp9 = icmp eq ptr %2, %3
  br i1 %cmp9, label %land.rhs, label %return

land.rhs:                                         ; preds = %land.lhs.true
  %isLong = getelementptr inbounds i8, ptr %key1.coerce, i64 16
  %4 = load i8, ptr %isLong, align 8
  %isLong10 = getelementptr inbounds i8, ptr %key2.coerce, i64 16
  %5 = load i8, ptr %isLong10, align 8
  %cmp12 = icmp eq i8 %4, %5
  %6 = zext i1 %cmp12 to i8
  br label %return

return:                                           ; preds = %if.end5, %land.lhs.true, %land.rhs, %if.end, %entry
  %retval.0 = phi i8 [ 1, %entry ], [ 0, %if.end ], [ 0, %land.lhs.true ], [ 0, %if.end5 ], [ %6, %land.rhs ]
  ret i8 %retval.0
}